target datalayout = "e-m:e-p270:32:32-p271:32:32-p272:64:64-i64:64-i128:128-f80:128-n8:16:32:64-S128"
target triple = "x86_64-pc-linux-gnu"

%"class.WasmEdge::Validator::FormChecker" = type { %"class.std::vector", %"class.std::vector.0", %"class.std::vector.5", i32, %"class.std::vector.10", %"class.std::vector.5", %"class.std::vector.0", %"class.std::unordered_set", i32, i32, %"class.std::vector.20", %"class.std::vector.0", %"class.std::vector.5", %"class.std::vector.0", %"class.std::vector.25", %"class.std::vector.30" }
%"class.std::vector" = type { %"struct.std::_Vector_base" }
%"struct.std::_Vector_base" = type { %"struct.std::_Vector_base<const WasmEdge::AST::SubType *, std::allocator<const WasmEdge::AST::SubType *>>::_Vector_impl" }
%"struct.std::_Vector_base<const WasmEdge::AST::SubType *, std::allocator<const WasmEdge::AST::SubType *>>::_Vector_impl" = type { %"struct.std::_Vector_base<const WasmEdge::AST::SubType *, std::allocator<const WasmEdge::AST::SubType *>>::_Vector_impl_data" }
%"struct.std::_Vector_base<const WasmEdge::AST::SubType *, std::allocator<const WasmEdge::AST::SubType *>>::_Vector_impl_data" = type { ptr, ptr, ptr }
%"class.std::vector.10" = type { %"struct.std::_Vector_base.11" }
%"struct.std::_Vector_base.11" = type { %"struct.std::_Vector_base<std::pair<WasmEdge::ValType, WasmEdge::ValMut>, std::allocator<std::pair<WasmEdge::ValType, WasmEdge::ValMut>>>::_Vector_impl" }
%"struct.std::_Vector_base<std::pair<WasmEdge::ValType, WasmEdge::ValMut>, std::allocator<std::pair<WasmEdge::ValType, WasmEdge::ValMut>>>::_Vector_impl" = type { %"struct.std::_Vector_base<std::pair<WasmEdge::ValType, WasmEdge::ValMut>, std::allocator<std::pair<WasmEdge::ValType, WasmEdge::ValMut>>>::_Vector_impl_data" }
%"struct.std::_Vector_base<std::pair<WasmEdge::ValType, WasmEdge::ValMut>, std::allocator<std::pair<WasmEdge::ValType, WasmEdge::ValMut>>>::_Vector_impl_data" = type { ptr, ptr, ptr }
%"class.std::unordered_set" = type { %"class.std::_Hashtable" }
%"class.std::_Hashtable" = type { ptr, i64, %"struct.std::__detail::_Hash_node_base", i64, %"struct.std::__detail::_Prime_rehash_policy", ptr }
%"struct.std::__detail::_Hash_node_base" = type { ptr }
%"struct.std::__detail::_Prime_rehash_policy" = type { float, i64 }
%"class.std::vector.20" = type { %"struct.std::_Vector_base.21" }
%"struct.std::_Vector_base.21" = type { %"struct.std::_Vector_base<WasmEdge::Validator::FormChecker::LocalType, std::allocator<WasmEdge::Validator::FormChecker::LocalType>>::_Vector_impl" }
%"struct.std::_Vector_base<WasmEdge::Validator::FormChecker::LocalType, std::allocator<WasmEdge::Validator::FormChecker::LocalType>>::_Vector_impl" = type { %"struct.std::_Vector_base<WasmEdge::Validator::FormChecker::LocalType, std::allocator<WasmEdge::Validator::FormChecker::LocalType>>::_Vector_impl_data" }
%"struct.std::_Vector_base<WasmEdge::Validator::FormChecker::LocalType, std::allocator<WasmEdge::Validator::FormChecker::LocalType>>::_Vector_impl_data" = type { ptr, ptr, ptr }
%"class.std::vector.5" = type { %"struct.std::_Vector_base.6" }
%"struct.std::_Vector_base.6" = type { %"struct.std::_Vector_base<WasmEdge::ValType, std::allocator<WasmEdge::ValType>>::_Vector_impl" }
%"struct.std::_Vector_base<WasmEdge::ValType, std::allocator<WasmEdge::ValType>>::_Vector_impl" = type { %"struct.std::_Vector_base<WasmEdge::ValType, std::allocator<WasmEdge::ValType>>::_Vector_impl_data" }
%"struct.std::_Vector_base<WasmEdge::ValType, std::allocator<WasmEdge::ValType>>::_Vector_impl_data" = type { ptr, ptr, ptr }
%"class.std::vector.0" = type { %"struct.std::_Vector_base.1" }
%"struct.std::_Vector_base.1" = type { %"struct.std::_Vector_base<unsigned int, std::allocator<unsigned int>>::_Vector_impl" }
%"struct.std::_Vector_base<unsigned int, std::allocator<unsigned int>>::_Vector_impl" = type { %"struct.std::_Vector_base<unsigned int, std::allocator<unsigned int>>::_Vector_impl_data" }
%"struct.std::_Vector_base<unsigned int, std::allocator<unsigned int>>::_Vector_impl_data" = type { ptr, ptr, ptr }
%"class.std::vector.25" = type { %"struct.std::_Vector_base.26" }
%"struct.std::_Vector_base.26" = type { %"struct.std::_Vector_base<WasmEdge::Validator::FormChecker::CtrlFrame, std::allocator<WasmEdge::Validator::FormChecker::CtrlFrame>>::_Vector_impl" }
%"struct.std::_Vector_base<WasmEdge::Validator::FormChecker::CtrlFrame, std::allocator<WasmEdge::Validator::FormChecker::CtrlFrame>>::_Vector_impl" = type { %"struct.std::_Vector_base<WasmEdge::Validator::FormChecker::CtrlFrame, std::allocator<WasmEdge::Validator::FormChecker::CtrlFrame>>::_Vector_impl_data" }
%"struct.std::_Vector_base<WasmEdge::Validator::FormChecker::CtrlFrame, std::allocator<WasmEdge::Validator::FormChecker::CtrlFrame>>::_Vector_impl_data" = type { ptr, ptr, ptr }
%"class.std::vector.30" = type { %"struct.std::_Vector_base.31" }
%"struct.std::_Vector_base.31" = type { %"struct.std::_Vector_base<std::optional<WasmEdge::ValType>, std::allocator<std::optional<WasmEdge::ValType>>>::_Vector_impl" }
%"struct.std::_Vector_base<std::optional<WasmEdge::ValType>, std::allocator<std::optional<WasmEdge::ValType>>>::_Vector_impl" = type { %"struct.std::_Vector_base<std::optional<WasmEdge::ValType>, std::allocator<std::optional<WasmEdge::ValType>>>::_Vector_impl_data" }
%"struct.std::_Vector_base<std::optional<WasmEdge::ValType>, std::allocator<std::optional<WasmEdge::ValType>>>::_Vector_impl_data" = type { ptr, ptr, ptr }
%"class.WasmEdge::ValType" = type { %union.anon.37 }
%union.anon.37 = type { %struct.anon }
%struct.anon = type { i8, i8, i8, i8, i32 }
%class.anon.96 = type { ptr }
%"class.WasmEdge::AST::SubType" = type <{ i8, [7 x i8], %"class.std::vector.0", %"class.WasmEdge::AST::CompositeType", %"class.std::optional", %"class.std::optional.45", [4 x i8] }>
%"class.WasmEdge::AST::CompositeType" = type { i8, [7 x i8], %"class.std::variant" }
%"class.std::variant" = type { %"struct.std::__detail::__variant::_Variant_base.base", [7 x i8] }
%"struct.std::__detail::__variant::_Variant_base.base" = type { %"struct.std::__detail::__variant::_Move_assign_base.base" }
%"struct.std::__detail::__variant::_Move_assign_base.base" = type { %"struct.std::__detail::__variant::_Copy_assign_base.base" }
%"struct.std::__detail::__variant::_Copy_assign_base.base" = type { %"struct.std::__detail::__variant::_Move_ctor_base.base" }
%"struct.std::__detail::__variant::_Move_ctor_base.base" = type { %"struct.std::__detail::__variant::_Copy_ctor_base.base" }
%"struct.std::__detail::__variant::_Copy_ctor_base.base" = type { %"struct.std::__detail::__variant::_Variant_storage.base" }
%"struct.std::__detail::__variant::_Variant_storage.base" = type { %"union.std::__detail::__variant::_Variadic_union", i8 }
%"union.std::__detail::__variant::_Variadic_union" = type { %"union.std::__detail::__variant::_Variadic_union.38" }
%"union.std::__detail::__variant::_Variadic_union.38" = type { %"struct.std::__detail::__variant::_Uninitialized.39" }
%"struct.std::__detail::__variant::_Uninitialized.39" = type { %"struct.__gnu_cxx::__aligned_membuf.40" }
%"struct.__gnu_cxx::__aligned_membuf.40" = type { [72 x i8] }
%"class.std::optional" = type { %"struct.std::_Optional_base" }
%"struct.std::_Optional_base" = type { %"struct.std::_Optional_payload" }
%"struct.std::_Optional_payload" = type { %"struct.std::_Optional_payload_base.base", [3 x i8] }
%"struct.std::_Optional_payload_base.base" = type <{ %"union.std::_Optional_payload_base<WasmEdge::AST::SubType::RecInfo>::_Storage", i8 }>
%"union.std::_Optional_payload_base<WasmEdge::AST::SubType::RecInfo>::_Storage" = type { %"struct.WasmEdge::AST::SubType::RecInfo" }
%"struct.WasmEdge::AST::SubType::RecInfo" = type { i32, i32 }
%"class.std::optional.45" = type { %"struct.std::_Optional_base.46" }
%"struct.std::_Optional_base.46" = type { %"struct.std::_Optional_payload.48" }
%"struct.std::_Optional_payload.48" = type { %"struct.std::_Optional_payload_base.base.50", [3 x i8] }
%"struct.std::_Optional_payload_base.base.50" = type <{ %"union.std::_Optional_payload_base<unsigned int>::_Storage", i8 }>
%"union.std::_Optional_payload_base<unsigned int>::_Storage" = type { i32 }

; Function Attrs: mustprogress nounwind uwtable
define linkonce_odr hidden noundef zeroext i1 @_ZNK8WasmEdge3AST13CompositeType6isFuncEv(ptr noundef nonnull align 8 dereferenceable(88) %0) #0 comdat align 2 {
  %2 = alloca ptr, align 8
  store ptr %0, ptr %2, align 8
  %3 = load ptr, ptr %2, align 8
  %4 = getelementptr inbounds %"class.WasmEdge::AST::CompositeType", ptr %3, i32 0, i32 0
  %5 = load i8, ptr %4, align 8
  %6 = icmp eq i8 %5, 96
  ret i1 %6
}

; Function Attrs: mustprogress nounwind uwtable
define linkonce_odr hidden noundef nonnull align 8 dereferenceable(88) ptr @_ZNK8WasmEdge3AST7SubType16getCompositeTypeEv(ptr noundef nonnull align 8 dereferenceable(140) %0) #0 comdat align 2 {
  %2 = alloca ptr, align 8
  store ptr %0, ptr %2, align 8
  %3 = load ptr, ptr %2, align 8
  %4 = getelementptr inbounds %"class.WasmEdge::AST::SubType", ptr %3, i32 0, i32 3
  ret ptr %4
}

; Function Attrs: mustprogress nounwind uwtable
define linkonce_odr hidden noundef nonnull align 8 dereferenceable(8) ptr @_ZNSt6vectorIPKN8WasmEdge3AST7SubTypeESaIS4_EEixEm(ptr noundef nonnull align 8 dereferenceable(24) %0, i64 noundef %1) #0 comdat align 2 {
  %3 = alloca ptr, align 8
  %4 = alloca i64, align 8
  store ptr %0, ptr %3, align 8
  store i64 %1, ptr %4, align 8
  %5 = load ptr, ptr %3, align 8
  %6 = getelementptr inbounds %"struct.std::_Vector_base", ptr %5, i32 0, i32 0
  %7 = getelementptr inbounds %"struct.std::_Vector_base<const WasmEdge::AST::SubType *, std::allocator<const WasmEdge::AST::SubType *>>::_Vector_impl_data", ptr %6, i32 0, i32 0
  %8 = load ptr, ptr %7, align 8
  %9 = load i64, ptr %4, align 8
  %10 = getelementptr inbounds ptr, ptr %8, i64 %9
  ret ptr %10
}

; Function Attrs: mustprogress nounwind uwtable
define linkonce_odr hidden noundef i32 @_ZNK8WasmEdge7ValType12getTypeIndexEv(ptr noundef nonnull align 4 dereferenceable(8) %0) #0 comdat align 2 {
  %2 = alloca ptr, align 8
  store ptr %0, ptr %2, align 8
  %3 = load ptr, ptr %2, align 8
  %4 = getelementptr inbounds %"class.WasmEdge::ValType", ptr %3, i32 0, i32 0
  %5 = getelementptr inbounds %struct.anon, ptr %4, i32 0, i32 4
  %6 = load i32, ptr %5, align 4
  ret i32 %6
}

; Function Attrs: mustprogress nounwind uwtable
define linkonce_odr hidden void @_ZN8WasmEdge7ValTypeC2ENS_8TypeCodeE(ptr noundef nonnull align 4 dereferenceable(8) %0, i8 noundef zeroext %1) unnamed_addr #0 comdat align 2 {
  %3 = alloca ptr, align 8
  %4 = alloca i8, align 1
  store ptr %0, ptr %3, align 8
  store i8 %1, ptr %4, align 1
  %5 = load ptr, ptr %3, align 8
  %6 = getelementptr inbounds %"class.WasmEdge::ValType", ptr %5, i32 0, i32 0
  %7 = getelementptr inbounds %struct.anon, ptr %6, i32 0, i32 1
  store i8 0, ptr %7, align 1
  %8 = getelementptr inbounds %"class.WasmEdge::ValType", ptr %5, i32 0, i32 0
  %9 = getelementptr inbounds %struct.anon, ptr %8, i32 0, i32 4
  store i32 0, ptr %9, align 4
  %10 = load i8, ptr %4, align 1
  switch i8 %10, label %30 [
    i8 127, label %11
    i8 126, label %11
    i8 125, label %11
    i8 124, label %11
    i8 123, label %11
    i8 120, label %11
    i8 119, label %11
    i8 115, label %17
    i8 114, label %17
    i8 113, label %17
    i8 112, label %17
    i8 111, label %17
    i8 110, label %17
    i8 109, label %17
    i8 108, label %17
    i8 107, label %17
    i8 106, label %17
    i8 105, label %17
    i8 -128, label %23
    i8 100, label %29
    i8 99, label %29
  ]

11:                                               ; preds = %2, %2, %2, %2, %2, %2, %2
  %12 = load i8, ptr %4, align 1
  %13 = getelementptr inbounds %"class.WasmEdge::ValType", ptr %5, i32 0, i32 0
  %14 = getelementptr inbounds %struct.anon, ptr %13, i32 0, i32 2
  store i8 %12, ptr %14, align 2
  %15 = getelementptr inbounds %"class.WasmEdge::ValType", ptr %5, i32 0, i32 0
  %16 = getelementptr inbounds %struct.anon, ptr %15, i32 0, i32 3
  store i8 64, ptr %16, align 1
  br label %31

17:                                               ; preds = %2, %2, %2, %2, %2, %2, %2, %2, %2, %2, %2
  %18 = getelementptr inbounds %"class.WasmEdge::ValType", ptr %5, i32 0, i32 0
  %19 = getelementptr inbounds %struct.anon, ptr %18, i32 0, i32 2
  store i8 99, ptr %19, align 2
  %20 = load i8, ptr %4, align 1
  %21 = getelementptr inbounds %"class.WasmEdge::ValType", ptr %5, i32 0, i32 0
  %22 = getelementptr inbounds %struct.anon, ptr %21, i32 0, i32 3
  store i8 %20, ptr %22, align 1
  br label %31

23:                                               ; preds = %2
  %24 = getelementptr inbounds %"class.WasmEdge::ValType", ptr %5, i32 0, i32 0
  %25 = getelementptr inbounds %struct.anon, ptr %24, i32 0, i32 2
  store i8 -128, ptr %25, align 2
  %26 = load i8, ptr %4, align 1
  %27 = getelementptr inbounds %"class.WasmEdge::ValType", ptr %5, i32 0, i32 0
  %28 = getelementptr inbounds %struct.anon, ptr %27, i32 0, i32 3
  store i8 %26, ptr %28, align 1
  br label %31

29:                                               ; preds = %2, %2
  br label %30

30:                                               ; preds = %29, %2
  unreachable

31:                                               ; preds = %23, %17, %11
  ret void
}

; Function Attrs: mustprogress nounwind uwtable
define linkonce_odr hidden noundef zeroext i8 @_ZNK8WasmEdge7ValType15getHeapTypeCodeEv(ptr noundef nonnull align 4 dereferenceable(8) %0) #0 comdat align 2 {
  %2 = alloca ptr, align 8
  store ptr %0, ptr %2, align 8
  %3 = load ptr, ptr %2, align 8
  %4 = getelementptr inbounds %"class.WasmEdge::ValType", ptr %3, i32 0, i32 0
  %5 = getelementptr inbounds %struct.anon, ptr %4, i32 0, i32 3
  %6 = load i8, ptr %5, align 1
  ret i8 %6
}

; Function Attrs: mustprogress nounwind uwtable
define linkonce_odr hidden noundef zeroext i1 @_ZNK8WasmEdge7ValType13isAbsHeapTypeEv(ptr noundef nonnull align 4 dereferenceable(8) %0) #0 comdat align 2 {
  %2 = alloca i1, align 1
  %3 = alloca ptr, align 8
  store ptr %0, ptr %3, align 8
  %4 = load ptr, ptr %3, align 8
  %5 = call noundef zeroext i1 @_ZNK8WasmEdge7ValType9isRefTypeEv(ptr noundef nonnull align 4 dereferenceable(8) %4) #15
  br i1 %5, label %6, label %12

6:                                                ; preds = %1
  %7 = getelementptr inbounds %"class.WasmEdge::ValType", ptr %4, i32 0, i32 0
  %8 = getelementptr inbounds %struct.anon, ptr %7, i32 0, i32 3
  %9 = load i8, ptr %8, align 1
  switch i8 %9, label %11 [
    i8 115, label %10
    i8 114, label %10
    i8 113, label %10
    i8 112, label %10
    i8 111, label %10
    i8 110, label %10
    i8 109, label %10
    i8 108, label %10
    i8 107, label %10
    i8 106, label %10
    i8 105, label %10
    i8 -128, label %10
  ]

10:                                               ; preds = %6, %6, %6, %6, %6, %6, %6, %6, %6, %6, %6, %6
  store i1 true, ptr %2, align 1
  br label %13

11:                                               ; preds = %6
  store i1 false, ptr %2, align 1
  br label %13

12:                                               ; preds = %1
  store i1 false, ptr %2, align 1
  br label %13

13:                                               ; preds = %12, %11, %10
  %14 = load i1, ptr %2, align 1
  ret i1 %14
}

; Function Attrs: mustprogress nounwind uwtable
define linkonce_odr hidden noundef zeroext i1 @_ZNK8WasmEdge7ValType9isRefTypeEv(ptr noundef nonnull align 4 dereferenceable(8) %0) #0 comdat align 2 {
  %2 = alloca i1, align 1
  %3 = alloca ptr, align 8
  store ptr %0, ptr %3, align 8
  %4 = load ptr, ptr %3, align 8
  %5 = getelementptr inbounds %"class.WasmEdge::ValType", ptr %4, i32 0, i32 0
  %6 = getelementptr inbounds %struct.anon, ptr %5, i32 0, i32 2
  %7 = load i8, ptr %6, align 2
  switch i8 %7, label %9 [
    i8 100, label %8
    i8 99, label %8
  ]

8:                                                ; preds = %1, %1
  store i1 true, ptr %2, align 1
  br label %10

9:                                                ; preds = %1
  store i1 false, ptr %2, align 1
  br label %10

10:                                               ; preds = %9, %8
  %11 = load i1, ptr %2, align 1
  ret i1 %11
}

; Function Attrs: mustprogress nounwind uwtable
define internal i64 @"_ZZN8WasmEdge9Validator11FormChecker10checkInstrERKNS_3AST11InstructionEENK3$_6clERKNS_7ValTypeE"(ptr noundef nonnull align 8 dereferenceable(8) %0, ptr noundef nonnull align 4 dereferenceable(8) %1) #0 align 2 {
  %3 = alloca %"class.WasmEdge::ValType", align 4
  %4 = alloca ptr, align 8
  %5 = alloca ptr, align 8
  %6 = alloca ptr, align 8
  store ptr %0, ptr %4, align 8
  store ptr %1, ptr %5, align 8
  %7 = load ptr, ptr %4, align 8
  %8 = getelementptr inbounds %class.anon.96, ptr %7, i32 0, i32 0
  %9 = load ptr, ptr %8, align 8
  %10 = load ptr, ptr %5, align 8
  %11 = call noundef zeroext i1 @_ZNK8WasmEdge7ValType9isRefTypeEv(ptr noundef nonnull align 4 dereferenceable(8) %10) #15
  br i1 %11, label %12, label %13

12:                                               ; preds = %2
  br label %15

13:                                               ; preds = %2
  unreachable

14:                                               ; No predecessors!
  br label %15

15:                                               ; preds = %14, %12
  %16 = load ptr, ptr %5, align 8
  %17 = call noundef zeroext i1 @_ZNK8WasmEdge7ValType13isAbsHeapTypeEv(ptr noundef nonnull align 4 dereferenceable(8) %16) #15
  br i1 %17, label %18, label %25

18:                                               ; preds = %15
  %19 = load ptr, ptr %5, align 8
  %20 = call noundef zeroext i8 @_ZNK8WasmEdge7ValType15getHeapTypeCodeEv(ptr noundef nonnull align 4 dereferenceable(8) %19) #15
  switch i8 %20, label %24 [
    i8 115, label %21
    i8 112, label %21
    i8 114, label %22
    i8 111, label %22
    i8 113, label %23
    i8 110, label %23
    i8 109, label %23
    i8 108, label %23
    i8 107, label %23
    i8 106, label %23
  ]

21:                                               ; preds = %18, %18
  call void @_ZN8WasmEdge7ValTypeC2ENS_8TypeCodeE(ptr noundef nonnull align 4 dereferenceable(8) %3, i8 noundef zeroext 112) #15
  br label %37

22:                                               ; preds = %18, %18
  call void @_ZN8WasmEdge7ValTypeC2ENS_8TypeCodeE(ptr noundef nonnull align 4 dereferenceable(8) %3, i8 noundef zeroext 111) #15
  br label %37

23:                                               ; preds = %18, %18, %18, %18, %18, %18
  call void @_ZN8WasmEdge7ValTypeC2ENS_8TypeCodeE(ptr noundef nonnull align 4 dereferenceable(8) %3, i8 noundef zeroext 110) #15
  br label %37

24:                                               ; preds = %18
  unreachable

25:                                               ; preds = %15
  %26 = getelementptr inbounds %"class.WasmEdge::Validator::FormChecker", ptr %9, i32 0, i32 0
  %27 = load ptr, ptr %5, align 8
  %28 = call noundef i32 @_ZNK8WasmEdge7ValType12getTypeIndexEv(ptr noundef nonnull align 4 dereferenceable(8) %27) #15
  %29 = zext i32 %28 to i64
  %30 = call noundef nonnull align 8 dereferenceable(8) ptr @_ZNSt6vectorIPKN8WasmEdge3AST7SubTypeESaIS4_EEixEm(ptr noundef nonnull align 8 dereferenceable(24) %26, i64 noundef %29) #15
  %31 = load ptr, ptr %30, align 8
  %32 = call noundef nonnull align 8 dereferenceable(88) ptr @_ZNK8WasmEdge3AST7SubType16getCompositeTypeEv(ptr noundef nonnull align 8 dereferenceable(140) %31) #15
  store ptr %32, ptr %6, align 8
  %33 = load ptr, ptr %6, align 8
  %34 = call noundef zeroext i1 @_ZNK8WasmEdge3AST13CompositeType6isFuncEv(ptr noundef nonnull align 8 dereferenceable(88) %33) #15
  br i1 %34, label %35, label %36

35:                                               ; preds = %25
  call void @_ZN8WasmEdge7ValTypeC2ENS_8TypeCodeE(ptr noundef nonnull align 4 dereferenceable(8) %3, i8 noundef zeroext 112) #15
  br label %37

36:                                               ; preds = %25
  call void @_ZN8WasmEdge7ValTypeC2ENS_8TypeCodeE(ptr noundef nonnull align 4 dereferenceable(8) %3, i8 noundef zeroext 110) #15
  br label %37

37:                                               ; preds = %36, %35, %23, %22, %21
  %38 = getelementptr inbounds %"class.WasmEdge::ValType", ptr %3, i32 0, i32 0
  %39 = getelementptr inbounds %union.anon.37, ptr %38, i32 0, i32 0
  %40 = load i64, ptr %39, align 4
  ret i64 %40
}