; Function Attrs: mustprogress nofree norecurse nosync nounwind willreturn memory(read, inaccessiblemem: write) uwtable
define internal fastcc range(i64 1851981824, 1885536257) i64 @"_ZZN8WasmEdge9Validator11FormChecker10checkInstrERKNS_3AST11InstructionEENK3$_6clERKNS_7ValTypeE"(ptr readonly captures(none) %.0.val, ptr noundef nonnull readonly align 4 captures(none) dereferenceable(8) %0) unnamed_addr #8 align 2 {
  %2 = getelementptr inbounds nuw i8, ptr %0, i64 2
  %3 = load i8, ptr %2, align 2
  %.off.i = add i8 %3, -99
  %switch.i = icmp ult i8 %.off.i, 2
  tail call void @llvm.assume(i1 %switch.i)
  %4 = getelementptr inbounds nuw i8, ptr %0, i64 3
  %5 = load i8, ptr %4, align 1
  switch i8 %5, label %_ZNK8WasmEdge7ValType13isAbsHeapTypeEv.exit [
    i8 115, label %switch.lookup
    i8 114, label %switch.lookup
    i8 113, label %switch.lookup
    i8 112, label %switch.lookup
    i8 111, label %switch.lookup
    i8 110, label %switch.lookup
    i8 109, label %switch.lookup
    i8 108, label %switch.lookup
    i8 107, label %switch.lookup
    i8 106, label %switch.lookup
    i8 105, label %switch.lookup
    i8 -128, label %switch.lookup
  ]

switch.lookup:                                    ; preds = %1, %1, %1, %1, %1, %1, %1, %1, %1, %1, %1, %1
  %switch.tableidx = add nsw i8 %5, -106
  %6 = sext i8 %switch.tableidx to i64
  %switch.gep = getelementptr inbounds [10 x i64], ptr @"switch.table._ZZN8WasmEdge9Validator11FormChecker10checkInstrERKNS_3AST11InstructionEENK3$_6clERKNS_7ValTypeE", i64 0, i64 %6
  %switch.load = load i64, ptr %switch.gep, align 8
  br label %17

_ZNK8WasmEdge7ValType13isAbsHeapTypeEv.exit:      ; preds = %1
  %7 = getelementptr inbounds nuw i8, ptr %0, i64 4
  %8 = load i32, ptr %7, align 4
  %9 = zext i32 %8 to i64
  %10 = load ptr, ptr %.0.val, align 8
  %11 = getelementptr inbounds nuw ptr, ptr %10, i64 %9
  %12 = load ptr, ptr %11, align 8
  %13 = getelementptr inbounds nuw i8, ptr %12, i64 32
  %14 = load i8, ptr %13, align 8
  %15 = icmp eq i8 %14, 96
  %16 = select i1 %15, i64 1885536256, i64 1851981824
  br label %17

17:                                               ; preds = %switch.lookup, %_ZNK8WasmEdge7ValType13isAbsHeapTypeEv.exit
  %.sroa.11.0 = phi i64 [ %16, %_ZNK8WasmEdge7ValType13isAbsHeapTypeEv.exit ], [ %switch.load, %switch.lookup ]
  ret i64 %.sroa.11.0
}